target datalayout = "e-m:e-p270:32:32-p271:32:32-p272:64:64-i64:64-i128:128-f80:128-n8:16:32:64-S128"
target triple = "x86_64-pc-linux-gnu"

%struct.mbedtls_pem_context = type { ptr, i64, ptr }

@.str.1 = private unnamed_addr constant [25 x i8] c"-----BEGIN X509 CRL-----\00", align 1
@.str.2 = private unnamed_addr constant [23 x i8] c"-----END X509 CRL-----\00", align 1

; Function Attrs: nounwind uwtable
define hidden i32 @mbedtls_x509_crl_parse(ptr noundef %0, ptr noundef %1, i64 noundef %2) #0 {
  %4 = alloca i32, align 4
  %5 = alloca ptr, align 8
  %6 = alloca ptr, align 8
  %7 = alloca i64, align 8
  %8 = alloca i32, align 4
  %9 = alloca i64, align 8
  %10 = alloca %struct.mbedtls_pem_context, align 8
  %11 = alloca i32, align 4
  %12 = alloca i32, align 4
  store ptr %0, ptr %5, align 8, !tbaa !3
  store ptr %1, ptr %6, align 8, !tbaa !8
  store i64 %2, ptr %7, align 8, !tbaa !10
  call void @llvm.lifetime.start.p0(i64 4, ptr %8) #9
  store i32 -110, ptr %8, align 4, !tbaa !12
  call void @llvm.lifetime.start.p0(i64 8, ptr %9) #9
  store i64 0, ptr %9, align 8, !tbaa !10
  call void @llvm.lifetime.start.p0(i64 24, ptr %10) #9
  call void @llvm.lifetime.start.p0(i64 4, ptr %11) #9
  store i32 0, ptr %11, align 4, !tbaa !12
  %13 = load ptr, ptr %5, align 8, !tbaa !3
  %14 = icmp eq ptr %13, null
  br i1 %14, label %18, label %15

15:                                               ; preds = %3
  %16 = load ptr, ptr %6, align 8, !tbaa !8
  %17 = icmp eq ptr %16, null
  br i1 %17, label %18, label %19

18:                                               ; preds = %15, %3
  store i32 -10240, ptr %4, align 4
  store i32 1, ptr %12, align 4
  br label %79

19:                                               ; preds = %15
  br label %20

20:                                               ; preds = %68, %19
  call void @mbedtls_pem_init(ptr noundef %10)
  %21 = load i64, ptr %7, align 8, !tbaa !10
  %22 = icmp eq i64 %21, 0
  br i1 %22, label %31, label %23

23:                                               ; preds = %20
  %24 = load ptr, ptr %6, align 8, !tbaa !8
  %25 = load i64, ptr %7, align 8, !tbaa !10
  %26 = sub i64 %25, 1
  %27 = getelementptr inbounds nuw i8, ptr %24, i64 %26
  %28 = load i8, ptr %27, align 1, !tbaa !47
  %29 = zext i8 %28 to i32
  %30 = icmp ne i32 %29, 0
  br i1 %30, label %31, label %32

31:                                               ; preds = %23, %20
  store i32 -4224, ptr %8, align 4, !tbaa !12
  br label %35

32:                                               ; preds = %23
  %33 = load ptr, ptr %6, align 8, !tbaa !8
  %34 = call i32 @mbedtls_pem_read_buffer(ptr noundef %10, ptr noundef @.str.1, ptr noundef @.str.2, ptr noundef %33, ptr noundef null, i64 noundef 0, ptr noundef %9)
  store i32 %34, ptr %8, align 4, !tbaa !12
  br label %35

35:                                               ; preds = %32, %31
  %36 = load i32, ptr %8, align 4, !tbaa !12
  %37 = icmp eq i32 %36, 0
  br i1 %37, label %38, label %55

38:                                               ; preds = %35
  store i32 1, ptr %11, align 4, !tbaa !12
  %39 = load i64, ptr %9, align 8, !tbaa !10
  %40 = load i64, ptr %7, align 8, !tbaa !10
  %41 = sub i64 %40, %39
  store i64 %41, ptr %7, align 8, !tbaa !10
  %42 = load i64, ptr %9, align 8, !tbaa !10
  %43 = load ptr, ptr %6, align 8, !tbaa !8
  %44 = getelementptr inbounds nuw i8, ptr %43, i64 %42
  store ptr %44, ptr %6, align 8, !tbaa !8
  %45 = load ptr, ptr %5, align 8, !tbaa !3
  %46 = getelementptr inbounds nuw %struct.mbedtls_pem_context, ptr %10, i32 0, i32 0
  %47 = load ptr, ptr %46, align 8, !tbaa !55
  %48 = getelementptr inbounds nuw %struct.mbedtls_pem_context, ptr %10, i32 0, i32 1
  %49 = load i64, ptr %48, align 8, !tbaa !57
  %50 = call i32 @mbedtls_x509_crl_parse_der(ptr noundef %45, ptr noundef %47, i64 noundef %49)
  store i32 %50, ptr %8, align 4, !tbaa !12
  %51 = icmp ne i32 %50, 0
  br i1 %51, label %52, label %54

52:                                               ; preds = %38
  call void @mbedtls_pem_free(ptr noundef %10)
  %53 = load i32, ptr %8, align 4, !tbaa !12
  store i32 %53, ptr %4, align 4
  store i32 1, ptr %12, align 4
  br label %79

54:                                               ; preds = %38
  br label %61

55:                                               ; preds = %35
  %56 = load i32, ptr %11, align 4, !tbaa !12
  %57 = icmp ne i32 %56, 0
  br i1 %57, label %58, label %60

58:                                               ; preds = %55
  call void @mbedtls_pem_free(ptr noundef %10)
  %59 = load i32, ptr %8, align 4, !tbaa !12
  store i32 %59, ptr %4, align 4
  store i32 1, ptr %12, align 4
  br label %79

60:                                               ; preds = %55
  br label %61

61:                                               ; preds = %60, %54
  call void @mbedtls_pem_free(ptr noundef %10)
  br label %62

62:                                               ; preds = %61
  %63 = load i32, ptr %11, align 4, !tbaa !12
  %64 = icmp ne i32 %63, 0
  br i1 %64, label %65, label %68

65:                                               ; preds = %62
  %66 = load i64, ptr %7, align 8, !tbaa !10
  %67 = icmp ugt i64 %66, 1
  br label %68

68:                                               ; preds = %65, %62
  %69 = phi i1 [ false, %62 ], [ %67, %65 ]
  br i1 %69, label %20, label %70, !llvm.loop !58

70:                                               ; preds = %68
  %71 = load i32, ptr %11, align 4, !tbaa !12
  %72 = icmp ne i32 %71, 0
  br i1 %72, label %73, label %74

73:                                               ; preds = %70
  store i32 0, ptr %4, align 4
  store i32 1, ptr %12, align 4
  br label %79

74:                                               ; preds = %70
  %75 = load ptr, ptr %5, align 8, !tbaa !3
  %76 = load ptr, ptr %6, align 8, !tbaa !8
  %77 = load i64, ptr %7, align 8, !tbaa !10
  %78 = call i32 @mbedtls_x509_crl_parse_der(ptr noundef %75, ptr noundef %76, i64 noundef %77)
  store i32 %78, ptr %4, align 4
  store i32 1, ptr %12, align 4
  br label %79

79:                                               ; preds = %74, %73, %58, %52, %18
  call void @llvm.lifetime.end.p0(i64 4, ptr %11) #9
  call void @llvm.lifetime.end.p0(i64 24, ptr %10) #9
  call void @llvm.lifetime.end.p0(i64 8, ptr %9) #9
  call void @llvm.lifetime.end.p0(i64 4, ptr %8) #9
  %80 = load i32, ptr %4, align 4
  ret i32 %80
}