; Function Attrs: nounwind uwtable
define hidden i32 @mbedtls_x509_crl_parse(ptr noundef %0, ptr noundef %1, i64 noundef %2) local_unnamed_addr #0 {
  %4 = alloca i64, align 8
  %5 = alloca %struct.mbedtls_pem_context, align 8
  call void @llvm.lifetime.start.p0(i64 8, ptr nonnull %4) #10
  store i64 0, ptr %4, align 8, !tbaa !24
  call void @llvm.lifetime.start.p0(i64 24, ptr nonnull %5) #10
  %6 = icmp eq ptr %0, null
  %7 = icmp eq ptr %1, null
  %or.cond = or i1 %6, %7
  br i1 %or.cond, label %.thread37, label %.preheader

.preheader:                                       ; preds = %3
  call void @mbedtls_pem_init(ptr noundef nonnull %5) #10
  %8 = icmp eq i64 %2, 0
  br i1 %8, label %.thread.thread, label %.lr.ph

.lr.ph:                                           ; preds = %.preheader
  %9 = getelementptr inbounds nuw i8, ptr %5, i64 8
  %10 = getelementptr i8, ptr %1, i64 %2
  %11 = getelementptr i8, ptr %10, i64 -1
  %12 = load i8, ptr %11, align 1, !tbaa !40
  %.not84 = icmp eq i8 %12, 0
  br i1 %.not84, label %.lr.ph88, label %.thread

13:                                               ; preds = %27
  %14 = getelementptr inbounds nuw i8, ptr %.0234787, i64 %21
  call void @mbedtls_pem_init(ptr noundef nonnull %5) #10
  %15 = getelementptr i8, ptr %.0234787, i64 %.0214886
  %16 = getelementptr i8, ptr %15, i64 -1
  %17 = load i8, ptr %16, align 1, !tbaa !40
  %.not = icmp eq i8 %17, 0
  br i1 %.not, label %.lr.ph88, label %.thread

.lr.ph88:                                         ; preds = %.lr.ph, %13
  %.0234787 = phi ptr [ %14, %13 ], [ %1, %.lr.ph ]
  %.0214886 = phi i64 [ %28, %13 ], [ %2, %.lr.ph ]
  %.not284985 = phi i1 [ false, %13 ], [ true, %.lr.ph ]
  %18 = call i32 @mbedtls_pem_read_buffer(ptr noundef nonnull %5, ptr noundef nonnull @.str.1, ptr noundef nonnull @.str.2, ptr noundef nonnull %.0234787, ptr noundef null, i64 noundef 0, ptr noundef nonnull %4) #10
  %19 = icmp eq i32 %18, 0
  br i1 %19, label %20, label %.thread

20:                                               ; preds = %.lr.ph88
  %21 = load i64, ptr %4, align 8, !tbaa !24
  %22 = load ptr, ptr %5, align 8, !tbaa !47
  %23 = load i64, ptr %9, align 8, !tbaa !49
  %24 = call i32 @mbedtls_x509_crl_parse_der(ptr noundef %0, ptr noundef %22, i64 noundef %23)
  %.not29 = icmp eq i32 %24, 0
  br i1 %.not29, label %27, label %25

25:                                               ; preds = %20
  call void @mbedtls_pem_free(ptr noundef nonnull %5) #10
  br label %.thread37

.thread:                                          ; preds = %13, %.lr.ph88, %.lr.ph
  %.not2849.lcssa = phi i1 [ true, %.lr.ph ], [ false, %13 ], [ %.not284985, %.lr.ph88 ]
  %.02148.lcssa = phi i64 [ %2, %.lr.ph ], [ %28, %13 ], [ %.0214886, %.lr.ph88 ]
  %.02347.lcssa = phi ptr [ %1, %.lr.ph ], [ %14, %13 ], [ %.0234787, %.lr.ph88 ]
  %.02031 = phi i32 [ -4224, %.lr.ph ], [ -4224, %13 ], [ %18, %.lr.ph88 ]
  br i1 %.not2849.lcssa, label %.thread.thread, label %26

26:                                               ; preds = %.thread
  call void @mbedtls_pem_free(ptr noundef nonnull %5) #10
  br label %.thread37

27:                                               ; preds = %20
  %28 = sub i64 %.0214886, %21
  call void @mbedtls_pem_free(ptr noundef nonnull %5) #10
  %29 = icmp ugt i64 %28, 1
  br i1 %29, label %13, label %.thread37, !llvm.loop !50

.thread.thread:                                   ; preds = %.preheader, %.thread
  %.021.lcssa69 = phi i64 [ %.02148.lcssa, %.thread ], [ 0, %.preheader ]
  %.023.lcssa68 = phi ptr [ %.02347.lcssa, %.thread ], [ %1, %.preheader ]
  call void @mbedtls_pem_free(ptr noundef nonnull %5) #10
  %30 = call i32 @mbedtls_x509_crl_parse_der(ptr noundef %0, ptr noundef nonnull %.023.lcssa68, i64 noundef %.021.lcssa69)
  br label %.thread37

.thread37:                                        ; preds = %27, %3, %.thread.thread, %26, %25
  %.025 = phi i32 [ %24, %25 ], [ %30, %.thread.thread ], [ %.02031, %26 ], [ -10240, %3 ], [ 0, %27 ]
  call void @llvm.lifetime.end.p0(i64 24, ptr nonnull %5) #10
  call void @llvm.lifetime.end.p0(i64 8, ptr nonnull %4) #10
  ret i32 %.025
}